target datalayout = "e-m:e-p270:32:32-p271:32:32-p272:64:64-i64:64-i128:128-f80:128-n8:16:32:64-S128"
target triple = "x86_64-unknown-linux-gnu"

; Function Attrs: mustprogress nounwind uwtable
define void @unorm2_close_75(ptr noundef %norm2) #0 {
entry:
  %norm2.addr = alloca ptr, align 8
  store ptr %norm2, ptr %norm2.addr, align 8
  %0 = load ptr, ptr %norm2.addr, align 8
  %isnull = icmp eq ptr %0, null
  br i1 %isnull, label %delete.end, label %delete.notnull

delete.notnull:                                   ; preds = %entry
  %vtable = load ptr, ptr %0, align 8
  %vfn = getelementptr inbounds ptr, ptr %vtable, i64 1
  %1 = load ptr, ptr %vfn, align 8
  call void %1(ptr noundef nonnull align 8 dereferenceable(8) %0) #8
  br label %delete.end

delete.end:                                       ; preds = %delete.notnull, %entry
  ret void
}