; Function Attrs: mustprogress nounwind uwtable
define void @unorm2_close_75(ptr noundef %norm2) local_unnamed_addr #0 {
entry:
  %isnull = icmp eq ptr %norm2, null
  br i1 %isnull, label %delete.end, label %delete.notnull

delete.notnull:                                   ; preds = %entry
  %vtable = load ptr, ptr %norm2, align 8
  %vfn = getelementptr inbounds i8, ptr %vtable, i64 8
  %0 = load ptr, ptr %vfn, align 8
  tail call void %0(ptr noundef nonnull align 8 dereferenceable(8) %norm2) #13
  br label %delete.end

delete.end:                                       ; preds = %delete.notnull, %entry
  ret void
}